target datalayout = "e-m:e-p270:32:32-p271:32:32-p272:64:64-i64:64-i128:128-f80:128-n8:16:32:64-S128"
target triple = "x86_64-pc-linux-gnu"

%struct.WebPDecParams = type { ptr, ptr, ptr, ptr, i32, ptr, ptr, ptr, ptr, ptr, ptr, ptr, ptr, ptr }
%struct.WebPDecBuffer = type { i32, i32, i32, i32, %union.anon, [4 x i32], ptr }
%union.anon = type { %struct.WebPYUVABuffer }
%struct.WebPYUVABuffer = type { ptr, ptr, ptr, ptr, i32, i32, i32, i32, i64, i64, i64, i64 }
%struct.WebPDecoderOptions = type { i32, i32, i32, i32, i32, i32, i32, i32, i32, i32, i32, i32, i32, i32, [5 x i32] }
%struct.WebPBitstreamFeatures = type { i32, i32, i32, i32, i32, [5 x i32] }
%struct.WebPDecoderConfig = type { %struct.WebPBitstreamFeatures, %struct.WebPDecBuffer, %struct.WebPDecoderOptions }

; Function Attrs: nounwind uwtable
define internal void @DefaultFeatures(ptr noundef %0) #0 {
  %2 = alloca ptr, align 8
  store ptr %0, ptr %2, align 8, !tbaa !90
  %3 = load ptr, ptr %2, align 8, !tbaa !90
  call void @llvm.memset.p0.i64(ptr align 4 %3, i8 0, i64 40, i1 false)
  ret void
}

; Function Attrs: inlinehint nounwind uwtable
define internal i32 @WebPInitDecBuffer(ptr noundef %0) #3 {
  %2 = alloca ptr, align 8
  store ptr %0, ptr %2, align 8, !tbaa !36
  %3 = load ptr, ptr %2, align 8, !tbaa !36
  %4 = call i32 @WebPInitDecBufferInternal(ptr noundef %3, i32 noundef 528)
  ret i32 %4
}

; Function Attrs: nounwind uwtable
define hidden void @WebPResetDecParams(ptr noundef %0) #0 {
  %2 = alloca ptr, align 8
  store ptr %0, ptr %2, align 8, !tbaa !25
  %3 = load ptr, ptr %2, align 8, !tbaa !25
  %4 = icmp ne ptr %3, null
  br i1 %4, label %5, label %7

5:                                                ; preds = %1
  %6 = load ptr, ptr %2, align 8, !tbaa !25
  call void @llvm.memset.p0.i64(ptr align 8 %6, i8 0, i64 112, i1 false)
  br label %7

7:                                                ; preds = %5, %1
  ret void
}

; Function Attrs: nounwind uwtable
define internal i32 @GetFeatures(ptr noundef %0, i64 noundef %1, ptr noundef %2) #0 {
  %4 = alloca i32, align 4
  %5 = alloca ptr, align 8
  %6 = alloca i64, align 8
  %7 = alloca ptr, align 8
  store ptr %0, ptr %5, align 8, !tbaa !14
  store i64 %1, ptr %6, align 8, !tbaa !15
  store ptr %2, ptr %7, align 8, !tbaa !90
  %8 = load ptr, ptr %7, align 8, !tbaa !90
  %9 = icmp eq ptr %8, null
  br i1 %9, label %13, label %10

10:                                               ; preds = %3
  %11 = load ptr, ptr %5, align 8, !tbaa !14
  %12 = icmp eq ptr %11, null
  br i1 %12, label %13, label %14

13:                                               ; preds = %10, %3
  store i32 2, ptr %4, align 4
  br label %29

14:                                               ; preds = %10
  %15 = load ptr, ptr %7, align 8, !tbaa !90
  call void @DefaultFeatures(ptr noundef %15)
  %16 = load ptr, ptr %5, align 8, !tbaa !14
  %17 = load i64, ptr %6, align 8, !tbaa !15
  %18 = load ptr, ptr %7, align 8, !tbaa !90
  %19 = getelementptr inbounds nuw %struct.WebPBitstreamFeatures, ptr %18, i32 0, i32 0
  %20 = load ptr, ptr %7, align 8, !tbaa !90
  %21 = getelementptr inbounds nuw %struct.WebPBitstreamFeatures, ptr %20, i32 0, i32 1
  %22 = load ptr, ptr %7, align 8, !tbaa !90
  %23 = getelementptr inbounds nuw %struct.WebPBitstreamFeatures, ptr %22, i32 0, i32 2
  %24 = load ptr, ptr %7, align 8, !tbaa !90
  %25 = getelementptr inbounds nuw %struct.WebPBitstreamFeatures, ptr %24, i32 0, i32 3
  %26 = load ptr, ptr %7, align 8, !tbaa !90
  %27 = getelementptr inbounds nuw %struct.WebPBitstreamFeatures, ptr %26, i32 0, i32 4
  %28 = call i32 @ParseHeadersInternal(ptr noundef %16, i64 noundef %17, ptr noundef %19, ptr noundef %21, ptr noundef %23, ptr noundef %25, ptr noundef %27, ptr noundef null)
  store i32 %28, ptr %4, align 4
  br label %29

29:                                               ; preds = %14, %13
  %30 = load i32, ptr %4, align 4
  ret i32 %30
}

; Function Attrs: nounwind uwtable
define i32 @WebPDecode(ptr noundef %0, i64 noundef %1, ptr noundef %2) #0 {
  %4 = alloca i32, align 4
  %5 = alloca ptr, align 8
  %6 = alloca i64, align 8
  %7 = alloca ptr, align 8
  %8 = alloca %struct.WebPDecParams, align 8
  %9 = alloca i32, align 4
  %10 = alloca i32, align 4
  %11 = alloca %struct.WebPDecBuffer, align 8
  store ptr %0, ptr %5, align 8, !tbaa !14
  store i64 %1, ptr %6, align 8, !tbaa !15
  store ptr %2, ptr %7, align 8, !tbaa !92
  call void @llvm.lifetime.start.p0(i64 112, ptr %8) #7
  call void @llvm.lifetime.start.p0(i64 4, ptr %9) #7
  %12 = load ptr, ptr %7, align 8, !tbaa !92
  %13 = icmp eq ptr %12, null
  br i1 %13, label %14, label %15

14:                                               ; preds = %3
  store i32 2, ptr %4, align 4
  store i32 1, ptr %10, align 4
  br label %82

15:                                               ; preds = %3
  %16 = load ptr, ptr %5, align 8, !tbaa !14
  %17 = load i64, ptr %6, align 8, !tbaa !15
  %18 = load ptr, ptr %7, align 8, !tbaa !92
  %19 = getelementptr inbounds nuw %struct.WebPDecoderConfig, ptr %18, i32 0, i32 0
  %20 = call i32 @GetFeatures(ptr noundef %16, i64 noundef %17, ptr noundef %19)
  store i32 %20, ptr %9, align 4, !tbaa !7
  %21 = load i32, ptr %9, align 4, !tbaa !7
  %22 = icmp ne i32 %21, 0
  br i1 %22, label %23, label %29

23:                                               ; preds = %15
  %24 = load i32, ptr %9, align 4, !tbaa !7
  %25 = icmp eq i32 %24, 7
  br i1 %25, label %26, label %27

26:                                               ; preds = %23
  store i32 3, ptr %4, align 4
  store i32 1, ptr %10, align 4
  br label %82

27:                                               ; preds = %23
  %28 = load i32, ptr %9, align 4, !tbaa !7
  store i32 %28, ptr %4, align 4
  store i32 1, ptr %10, align 4
  br label %82

29:                                               ; preds = %15
  call void @WebPResetDecParams(ptr noundef %8)
  %30 = load ptr, ptr %7, align 8, !tbaa !92
  %31 = getelementptr inbounds nuw %struct.WebPDecoderConfig, ptr %30, i32 0, i32 2
  %32 = getelementptr inbounds nuw %struct.WebPDecParams, ptr %8, i32 0, i32 5
  store ptr %31, ptr %32, align 8, !tbaa !60
  %33 = load ptr, ptr %7, align 8, !tbaa !92
  %34 = getelementptr inbounds nuw %struct.WebPDecoderConfig, ptr %33, i32 0, i32 1
  %35 = getelementptr inbounds nuw %struct.WebPDecParams, ptr %8, i32 0, i32 0
  store ptr %34, ptr %35, align 8, !tbaa !27
  %36 = getelementptr inbounds nuw %struct.WebPDecParams, ptr %8, i32 0, i32 0
  %37 = load ptr, ptr %36, align 8, !tbaa !27
  %38 = load ptr, ptr %7, align 8, !tbaa !92
  %39 = getelementptr inbounds nuw %struct.WebPDecoderConfig, ptr %38, i32 0, i32 0
  %40 = call i32 @WebPAvoidSlowMemory(ptr noundef %37, ptr noundef %39)
  %41 = icmp ne i32 %40, 0
  br i1 %41, label %42, label %76

42:                                               ; preds = %29
  call void @llvm.lifetime.start.p0(i64 120, ptr %11) #7
  %43 = call i32 @WebPInitDecBuffer(ptr noundef %11)
  %44 = icmp ne i32 %43, 0
  br i1 %44, label %46, label %45

45:                                               ; preds = %42
  store i32 2, ptr %4, align 4
  store i32 1, ptr %10, align 4
  br label %73

46:                                               ; preds = %42
  %47 = load ptr, ptr %7, align 8, !tbaa !92
  %48 = getelementptr inbounds nuw %struct.WebPDecoderConfig, ptr %47, i32 0, i32 1
  %49 = getelementptr inbounds nuw %struct.WebPDecBuffer, ptr %48, i32 0, i32 0
  %50 = load i32, ptr %49, align 8, !tbaa !94
  %51 = getelementptr inbounds nuw %struct.WebPDecBuffer, ptr %11, i32 0, i32 0
  store i32 %50, ptr %51, align 8, !tbaa !32
  %52 = load ptr, ptr %7, align 8, !tbaa !92
  %53 = getelementptr inbounds nuw %struct.WebPDecoderConfig, ptr %52, i32 0, i32 0
  %54 = getelementptr inbounds nuw %struct.WebPBitstreamFeatures, ptr %53, i32 0, i32 0
  %55 = load i32, ptr %54, align 8, !tbaa !105
  %56 = getelementptr inbounds nuw %struct.WebPDecBuffer, ptr %11, i32 0, i32 1
  store i32 %55, ptr %56, align 4, !tbaa !76
  %57 = load ptr, ptr %7, align 8, !tbaa !92
  %58 = getelementptr inbounds nuw %struct.WebPDecoderConfig, ptr %57, i32 0, i32 0
  %59 = getelementptr inbounds nuw %struct.WebPBitstreamFeatures, ptr %58, i32 0, i32 1
  %60 = load i32, ptr %59, align 4, !tbaa !106
  %61 = getelementptr inbounds nuw %struct.WebPDecBuffer, ptr %11, i32 0, i32 2
  store i32 %60, ptr %61, align 8, !tbaa !77
  %62 = getelementptr inbounds nuw %struct.WebPDecParams, ptr %8, i32 0, i32 0
  store ptr %11, ptr %62, align 8, !tbaa !27
  %63 = load ptr, ptr %5, align 8, !tbaa !14
  %64 = load i64, ptr %6, align 8, !tbaa !15
  %65 = call i32 @DecodeInto(ptr noundef %63, i64 noundef %64, ptr noundef %8)
  store i32 %65, ptr %9, align 4, !tbaa !7
  %66 = load i32, ptr %9, align 4, !tbaa !7
  %67 = icmp eq i32 %66, 0
  br i1 %67, label %68, label %72

68:                                               ; preds = %46
  %69 = load ptr, ptr %7, align 8, !tbaa !92
  %70 = getelementptr inbounds nuw %struct.WebPDecoderConfig, ptr %69, i32 0, i32 1
  %71 = call i32 @WebPCopyDecBufferPixels(ptr noundef %11, ptr noundef %70)
  store i32 %71, ptr %9, align 4, !tbaa !7
  br label %72

72:                                               ; preds = %68, %46
  call void @WebPFreeDecBuffer(ptr noundef %11)
  store i32 0, ptr %10, align 4
  br label %73

73:                                               ; preds = %72, %45
  call void @llvm.lifetime.end.p0(i64 120, ptr %11) #7
  %74 = load i32, ptr %10, align 4
  switch i32 %74, label %82 [
    i32 0, label %75
  ]

75:                                               ; preds = %73
  br label %80

76:                                               ; preds = %29
  %77 = load ptr, ptr %5, align 8, !tbaa !14
  %78 = load i64, ptr %6, align 8, !tbaa !15
  %79 = call i32 @DecodeInto(ptr noundef %77, i64 noundef %78, ptr noundef %8)
  store i32 %79, ptr %9, align 4, !tbaa !7
  br label %80

80:                                               ; preds = %76, %75
  %81 = load i32, ptr %9, align 4, !tbaa !7
  store i32 %81, ptr %4, align 4
  store i32 1, ptr %10, align 4
  br label %82

82:                                               ; preds = %80, %73, %27, %26, %14
  call void @llvm.lifetime.end.p0(i64 4, ptr %9) #7
  call void @llvm.lifetime.end.p0(i64 112, ptr %8) #7
  %83 = load i32, ptr %4, align 4
  ret i32 %83
}