; Function Attrs: nounwind uwtable
define i32 @WebPDecode(ptr noundef %0, i64 noundef %1, ptr noundef %2) local_unnamed_addr #0 {
  %4 = alloca %struct.WebPDecParams, align 8
  %5 = alloca %struct.WebPDecBuffer, align 8
  call void @llvm.lifetime.start.p0(i64 112, ptr nonnull %4) #10
  %6 = icmp eq ptr %2, null
  %7 = icmp eq ptr %0, null
  %or.cond = or i1 %7, %6
  br i1 %or.cond, label %GetFeatures.exit.thread, label %GetFeatures.exit

GetFeatures.exit:                                 ; preds = %3
  tail call void @llvm.memset.p0.i64(ptr noundef nonnull align 4 dereferenceable(40) %2, i8 0, i64 40, i1 false)
  %8 = getelementptr inbounds nuw i8, ptr %2, i64 4
  %9 = getelementptr inbounds nuw i8, ptr %2, i64 8
  %10 = getelementptr inbounds nuw i8, ptr %2, i64 12
  %11 = getelementptr inbounds nuw i8, ptr %2, i64 16
  %12 = tail call fastcc i32 @ParseHeadersInternal(ptr noundef nonnull %0, i64 noundef %1, ptr noundef nonnull %2, ptr noundef nonnull %8, ptr noundef nonnull %9, ptr noundef %10, ptr noundef nonnull %11, ptr noundef null)
  switch i32 %12, label %13 [
    i32 0, label %14
    i32 7, label %GetFeatures.exit.thread
  ]

13:                                               ; preds = %GetFeatures.exit
  br label %GetFeatures.exit.thread

14:                                               ; preds = %GetFeatures.exit
  %15 = getelementptr inbounds nuw i8, ptr %4, i64 8
  call void @llvm.memset.p0.i64(ptr noundef nonnull align 8 dereferenceable(112) %15, i8 0, i64 104, i1 false)
  %16 = getelementptr inbounds nuw i8, ptr %2, i64 160
  %17 = getelementptr inbounds nuw i8, ptr %4, i64 40
  store ptr %16, ptr %17, align 8, !tbaa !51
  %18 = getelementptr inbounds nuw i8, ptr %2, i64 40
  store ptr %18, ptr %4, align 8, !tbaa !23
  %19 = tail call i32 @WebPAvoidSlowMemory(ptr noundef nonnull %18, ptr noundef nonnull %2) #10
  %.not28 = icmp eq i32 %19, 0
  br i1 %.not28, label %34, label %20

20:                                               ; preds = %14
  call void @llvm.lifetime.start.p0(i64 120, ptr nonnull %5) #10
  %21 = call i32 @WebPInitDecBufferInternal(ptr noundef nonnull %5, i32 noundef 528) #10
  %.not29.not = icmp eq i32 %21, 0
  br i1 %.not29.not, label %33, label %22

22:                                               ; preds = %20
  %23 = load i32, ptr %18, align 8, !tbaa !75
  store i32 %23, ptr %5, align 8, !tbaa !28
  %24 = load i32, ptr %2, align 8, !tbaa !85
  %25 = getelementptr inbounds nuw i8, ptr %5, i64 4
  store i32 %24, ptr %25, align 4, !tbaa !89
  %26 = load i32, ptr %8, align 4, !tbaa !86
  %27 = getelementptr inbounds nuw i8, ptr %5, i64 8
  store i32 %26, ptr %27, align 8, !tbaa !90
  store ptr %5, ptr %4, align 8, !tbaa !23
  %28 = call fastcc i32 @DecodeInto(ptr noundef nonnull %0, i64 noundef %1, ptr noundef %4)
  %29 = icmp eq i32 %28, 0
  br i1 %29, label %30, label %32

30:                                               ; preds = %22
  %31 = call i32 @WebPCopyDecBufferPixels(ptr noundef nonnull %5, ptr noundef nonnull %18) #10
  br label %32

32:                                               ; preds = %30, %22
  %.1 = phi i32 [ %31, %30 ], [ %28, %22 ]
  call void @WebPFreeDecBuffer(ptr noundef nonnull %5) #10
  br label %33

33:                                               ; preds = %20, %32
  %spec.select = phi i32 [ %.1, %32 ], [ 2, %20 ]
  call void @llvm.lifetime.end.p0(i64 120, ptr nonnull %5) #10
  br label %GetFeatures.exit.thread

34:                                               ; preds = %14
  %35 = call fastcc i32 @DecodeInto(ptr noundef nonnull %0, i64 noundef %1, ptr noundef %4)
  br label %GetFeatures.exit.thread

GetFeatures.exit.thread:                          ; preds = %33, %34, %GetFeatures.exit, %3, %13
  %.022 = phi i32 [ 2, %3 ], [ 3, %GetFeatures.exit ], [ %35, %34 ], [ %spec.select, %33 ], [ %12, %13 ]
  call void @llvm.lifetime.end.p0(i64 112, ptr nonnull %4) #10
  ret i32 %.022
}